target datalayout = "e-m:e-p270:32:32-p271:32:32-p272:64:64-i64:64-i128:128-f80:128-n8:16:32:64-S128"
target triple = "x86_64-pc-linux-gnu"

%struct.Vec_Int_t_ = type { i32, i32, ptr }
%struct.Prs_Man_t_ = type { ptr, ptr, ptr, ptr, ptr, ptr, ptr, ptr, ptr, %struct.Vec_Str_t_, %struct.Vec_Int_t_, %struct.Vec_Int_t_, %struct.Vec_Int_t_, %struct.Vec_Int_t_, %struct.Vec_Int_t_, %struct.Vec_Int_t_, %struct.Vec_Int_t_, i32, i32, i32, i32, [1000 x i8] }
%struct.Vec_Str_t_ = type { i32, i32, ptr }

; Function Attrs: nounwind uwtable
define internal i32 @Prs_CharIsDigit(i8 noundef signext %0) #0 {
  %2 = alloca i8, align 1
  store i8 %0, ptr %2, align 1
  %3 = load i8, ptr %2, align 1
  %4 = sext i8 %3 to i32
  %5 = icmp sge i32 %4, 48
  br i1 %5, label %6, label %10

6:                                                ; preds = %1
  %7 = load i8, ptr %2, align 1
  %8 = sext i8 %7 to i32
  %9 = icmp sle i32 %8, 57
  br label %10

10:                                               ; preds = %6, %1
  %11 = phi i1 [ false, %1 ], [ %9, %6 ]
  %12 = zext i1 %11 to i32
  ret i32 %12
}

; Function Attrs: nounwind uwtable
define internal i32 @Prs_CharIsChar(i8 noundef signext %0) #0 {
  %2 = alloca i8, align 1
  store i8 %0, ptr %2, align 1
  %3 = load i8, ptr %2, align 1
  %4 = sext i8 %3 to i32
  %5 = icmp sge i32 %4, 97
  br i1 %5, label %6, label %10

6:                                                ; preds = %1
  %7 = load i8, ptr %2, align 1
  %8 = sext i8 %7 to i32
  %9 = icmp sle i32 %8, 122
  br i1 %9, label %20, label %10

10:                                               ; preds = %6, %1
  %11 = load i8, ptr %2, align 1
  %12 = sext i8 %11 to i32
  %13 = icmp sge i32 %12, 65
  br i1 %13, label %14, label %18

14:                                               ; preds = %10
  %15 = load i8, ptr %2, align 1
  %16 = sext i8 %15 to i32
  %17 = icmp sle i32 %16, 90
  br label %18

18:                                               ; preds = %14, %10
  %19 = phi i1 [ false, %10 ], [ %17, %14 ]
  br label %20

20:                                               ; preds = %18, %6
  %21 = phi i1 [ true, %6 ], [ %19, %18 ]
  %22 = zext i1 %21 to i32
  ret i32 %22
}

; Function Attrs: nounwind uwtable
define internal i32 @Prs_CharIsSymb2(i8 noundef signext %0) #0 {
  %2 = alloca i8, align 1
  store i8 %0, ptr %2, align 1
  %3 = load i8, ptr %2, align 1
  %4 = call i32 @Prs_CharIsSymb1(i8 noundef signext %3)
  %5 = icmp ne i32 %4, 0
  br i1 %5, label %14, label %6

6:                                                ; preds = %1
  %7 = load i8, ptr %2, align 1
  %8 = call i32 @Prs_CharIsDigit(i8 noundef signext %7)
  %9 = icmp ne i32 %8, 0
  br i1 %9, label %14, label %10

10:                                               ; preds = %6
  %11 = load i8, ptr %2, align 1
  %12 = sext i8 %11 to i32
  %13 = icmp eq i32 %12, 36
  br label %14

14:                                               ; preds = %10, %6, %1
  %15 = phi i1 [ true, %6 ], [ true, %1 ], [ %13, %10 ]
  %16 = zext i1 %15 to i32
  ret i32 %16
}

; Function Attrs: nounwind uwtable
define internal i32 @Prs_CharIsSymb1(i8 noundef signext %0) #0 {
  %2 = alloca i8, align 1
  store i8 %0, ptr %2, align 1
  %3 = load i8, ptr %2, align 1
  %4 = call i32 @Prs_CharIsChar(i8 noundef signext %3)
  %5 = icmp ne i32 %4, 0
  br i1 %5, label %10, label %6

6:                                                ; preds = %1
  %7 = load i8, ptr %2, align 1
  %8 = sext i8 %7 to i32
  %9 = icmp eq i32 %8, 95
  br label %10

10:                                               ; preds = %6, %1
  %11 = phi i1 [ true, %1 ], [ %9, %6 ]
  %12 = zext i1 %11 to i32
  ret i32 %12
}

; Function Attrs: nounwind uwtable
define internal i32 @Prs_ManIsChar(ptr noundef %0, i8 noundef signext %1) #0 {
  %3 = alloca ptr, align 8
  %4 = alloca i8, align 1
  store ptr %0, ptr %3, align 8
  store i8 %1, ptr %4, align 1
  %5 = load ptr, ptr %3, align 8
  %6 = getelementptr inbounds %struct.Prs_Man_t_, ptr %5, i32 0, i32 3
  %7 = load ptr, ptr %6, align 8
  %8 = getelementptr inbounds i8, ptr %7, i64 0
  %9 = load i8, ptr %8, align 1
  %10 = sext i8 %9 to i32
  %11 = load i8, ptr %4, align 1
  %12 = sext i8 %11 to i32
  %13 = icmp eq i32 %10, %12
  %14 = zext i1 %13 to i32
  ret i32 %14
}

; Function Attrs: nounwind uwtable
define internal i32 @Prs_ManReadName(ptr noundef %0) #0 {
  %2 = alloca i32, align 4
  %3 = alloca ptr, align 8
  %4 = alloca ptr, align 8
  store ptr %0, ptr %3, align 8
  %5 = load ptr, ptr %3, align 8
  %6 = getelementptr inbounds %struct.Prs_Man_t_, ptr %5, i32 0, i32 3
  %7 = load ptr, ptr %6, align 8
  store ptr %7, ptr %4, align 8
  %8 = load ptr, ptr %3, align 8
  %9 = call i32 @Prs_ManIsChar(ptr noundef %8, i8 noundef signext 92)
  %10 = icmp ne i32 %9, 0
  br i1 %10, label %11, label %27

11:                                               ; preds = %1
  %12 = load ptr, ptr %3, align 8
  %13 = getelementptr inbounds %struct.Prs_Man_t_, ptr %12, i32 0, i32 3
  %14 = load ptr, ptr %13, align 8
  %15 = getelementptr inbounds i8, ptr %14, i32 1
  store ptr %15, ptr %13, align 8
  store ptr %15, ptr %4, align 8
  br label %16

16:                                               ; preds = %21, %11
  %17 = load ptr, ptr %3, align 8
  %18 = call i32 @Prs_ManIsChar(ptr noundef %17, i8 noundef signext 32)
  %19 = icmp ne i32 %18, 0
  %20 = xor i1 %19, true
  br i1 %20, label %21, label %26

21:                                               ; preds = %16
  %22 = load ptr, ptr %3, align 8
  %23 = getelementptr inbounds %struct.Prs_Man_t_, ptr %22, i32 0, i32 3
  %24 = load ptr, ptr %23, align 8
  %25 = getelementptr inbounds i8, ptr %24, i32 1
  store ptr %25, ptr %23, align 8
  br label %16, !llvm.loop !63

26:                                               ; preds = %16
  br label %54

27:                                               ; preds = %1
  %28 = load ptr, ptr %3, align 8
  %29 = getelementptr inbounds %struct.Prs_Man_t_, ptr %28, i32 0, i32 3
  %30 = load ptr, ptr %29, align 8
  %31 = load i8, ptr %30, align 1
  %32 = call i32 @Prs_CharIsSymb1(i8 noundef signext %31)
  %33 = icmp ne i32 %32, 0
  br i1 %33, label %34, label %52

34:                                               ; preds = %27
  %35 = load ptr, ptr %3, align 8
  %36 = getelementptr inbounds %struct.Prs_Man_t_, ptr %35, i32 0, i32 3
  %37 = load ptr, ptr %36, align 8
  %38 = getelementptr inbounds i8, ptr %37, i32 1
  store ptr %38, ptr %36, align 8
  br label %39

39:                                               ; preds = %46, %34
  %40 = load ptr, ptr %3, align 8
  %41 = getelementptr inbounds %struct.Prs_Man_t_, ptr %40, i32 0, i32 3
  %42 = load ptr, ptr %41, align 8
  %43 = load i8, ptr %42, align 1
  %44 = call i32 @Prs_CharIsSymb2(i8 noundef signext %43)
  %45 = icmp ne i32 %44, 0
  br i1 %45, label %46, label %51

46:                                               ; preds = %39
  %47 = load ptr, ptr %3, align 8
  %48 = getelementptr inbounds %struct.Prs_Man_t_, ptr %47, i32 0, i32 3
  %49 = load ptr, ptr %48, align 8
  %50 = getelementptr inbounds i8, ptr %49, i32 1
  store ptr %50, ptr %48, align 8
  br label %39, !llvm.loop !64

51:                                               ; preds = %39
  br label %53

52:                                               ; preds = %27
  store i32 0, ptr %2, align 4
  br label %63

53:                                               ; preds = %51
  br label %54

54:                                               ; preds = %53, %26
  %55 = load ptr, ptr %3, align 8
  %56 = getelementptr inbounds %struct.Prs_Man_t_, ptr %55, i32 0, i32 4
  %57 = load ptr, ptr %56, align 8
  %58 = load ptr, ptr %4, align 8
  %59 = load ptr, ptr %3, align 8
  %60 = getelementptr inbounds %struct.Prs_Man_t_, ptr %59, i32 0, i32 3
  %61 = load ptr, ptr %60, align 8
  %62 = call i32 @Abc_NamStrFindOrAddLim(ptr noundef %57, ptr noundef %58, ptr noundef %61, ptr noundef null)
  store i32 %62, ptr %2, align 4
  br label %63

63:                                               ; preds = %54, %52
  %64 = load i32, ptr %2, align 4
  ret i32 %64
}