; Function Attrs: nounwind uwtable
define internal fastcc i32 @Prs_ManReadName(ptr noundef captures(none) %0) unnamed_addr #0 {
  %2 = getelementptr inbounds nuw i8, ptr %0, i64 24
  %3 = load ptr, ptr %2, align 8
  %.val17.val = load i8, ptr %3, align 1
  %.not = icmp eq i8 %.val17.val, 92
  br i1 %.not, label %4, label %8

4:                                                ; preds = %1
  %5 = getelementptr inbounds nuw i8, ptr %3, i64 1
  br label %6

6:                                                ; preds = %6, %4
  %storemerge15 = phi ptr [ %5, %4 ], [ %7, %6 ]
  store ptr %storemerge15, ptr %2, align 8
  %.val.val = load i8, ptr %storemerge15, align 1
  %.not18 = icmp eq i8 %.val.val, 32
  %7 = getelementptr inbounds nuw i8, ptr %storemerge15, i64 1
  br i1 %.not18, label %.loopexit, label %6, !llvm.loop !15

8:                                                ; preds = %1
  %9 = and i8 %.val17.val, -33
  %10 = add i8 %9, -91
  %narrow.i.i = icmp ult i8 %10, -26
  %11 = icmp ne i8 %.val17.val, 95
  %.not20 = and i1 %11, %narrow.i.i
  br i1 %.not20, label %23, label %.preheader

.preheader:                                       ; preds = %8, %.preheader
  %.pn28 = phi ptr [ %storemerge, %.preheader ], [ %3, %8 ]
  %storemerge = getelementptr inbounds nuw i8, ptr %.pn28, i64 1
  store ptr %storemerge, ptr %2, align 8
  %12 = load i8, ptr %storemerge, align 1
  %13 = and i8 %12, -33
  %14 = add i8 %13, -91
  %narrow.i.i.i = icmp ult i8 %14, -26
  %15 = icmp ne i8 %12, 95
  %.not5.not7.i.not26 = and i1 %15, %narrow.i.i.i
  %16 = add i8 %12, -58
  %17 = icmp ult i8 %16, -10
  %18 = icmp ne i8 %12, 36
  %.not24 = and i1 %18, %.not5.not7.i.not26
  %narrow.i.not = and i1 %17, %.not24
  br i1 %narrow.i.not, label %.loopexit, label %.preheader, !llvm.loop !16

.loopexit:                                        ; preds = %.preheader, %6
  %19 = phi ptr [ %storemerge15, %6 ], [ %storemerge, %.preheader ]
  %.0 = phi ptr [ %5, %6 ], [ %3, %.preheader ]
  %20 = getelementptr inbounds nuw i8, ptr %0, i64 32
  %21 = load ptr, ptr %20, align 8
  %22 = tail call i32 @Abc_NamStrFindOrAddLim(ptr noundef %21, ptr noundef nonnull %.0, ptr noundef nonnull %19, ptr noundef null) #28
  br label %23

23:                                               ; preds = %8, %.loopexit
  %.012 = phi i32 [ %22, %.loopexit ], [ 0, %8 ]
  ret i32 %.012
}